target datalayout = "e-m:e-p270:32:32-p271:32:32-p272:64:64-i64:64-i128:128-f80:128-n8:16:32:64-S128"
target triple = "x86_64-pc-linux-gnu"

%struct.slurmdb_reservation_rec_t = type { ptr, ptr, ptr, i64, i32, ptr, ptr, ptr, i64, i64, i64, i64, ptr, double, ptr }

; Function Attrs: nounwind uwtable
define dso_local void @slurmdb_destroy_reservation_rec(ptr noundef %0) #0 {
  %2 = alloca ptr, align 8
  %3 = alloca ptr, align 8
  store ptr %0, ptr %2, align 8
  call void @llvm.lifetime.start.p0(i64 8, ptr %3) #10
  %4 = load ptr, ptr %2, align 8
  store ptr %4, ptr %3, align 8
  %5 = load ptr, ptr %3, align 8
  %6 = icmp ne ptr %5, null
  br i1 %6, label %7, label %22

7:                                                ; preds = %1
  %8 = load ptr, ptr %3, align 8
  %9 = getelementptr inbounds nuw %struct.slurmdb_reservation_rec_t, ptr %8, i32 0, i32 0
  call void @slurm_xfree(ptr noundef %9)
  %10 = load ptr, ptr %3, align 8
  %11 = getelementptr inbounds nuw %struct.slurmdb_reservation_rec_t, ptr %10, i32 0, i32 1
  call void @slurm_xfree(ptr noundef %11)
  %12 = load ptr, ptr %3, align 8
  %13 = getelementptr inbounds nuw %struct.slurmdb_reservation_rec_t, ptr %12, i32 0, i32 2
  call void @slurm_xfree(ptr noundef %13)
  %14 = load ptr, ptr %3, align 8
  %15 = getelementptr inbounds nuw %struct.slurmdb_reservation_rec_t, ptr %14, i32 0, i32 5
  call void @slurm_xfree(ptr noundef %15)
  %16 = load ptr, ptr %3, align 8
  %17 = getelementptr inbounds nuw %struct.slurmdb_reservation_rec_t, ptr %16, i32 0, i32 6
  call void @slurm_xfree(ptr noundef %17)
  %18 = load ptr, ptr %3, align 8
  %19 = getelementptr inbounds nuw %struct.slurmdb_reservation_rec_t, ptr %18, i32 0, i32 7
  call void @slurm_xfree(ptr noundef %19)
  %20 = load ptr, ptr %3, align 8
  %21 = getelementptr inbounds nuw %struct.slurmdb_reservation_rec_t, ptr %20, i32 0, i32 12
  call void @slurm_xfree(ptr noundef %21)
  call void @slurm_xfree(ptr noundef %3)
  br label %22

22:                                               ; preds = %7, %1
  call void @llvm.lifetime.end.p0(i64 8, ptr %3) #10
  ret void
}