; Function Attrs: nounwind uwtable
define dso_local void @slurmdb_destroy_reservation_rec(ptr noundef %0) local_unnamed_addr #0 {
  %2 = alloca ptr, align 8
  call void @llvm.lifetime.start.p0(i64 8, ptr nonnull %2) #19
  store ptr %0, ptr %2, align 8
  %.not = icmp eq ptr %0, null
  br i1 %.not, label %10, label %3

3:                                                ; preds = %1
  tail call void @slurm_xfree(ptr noundef nonnull %0) #19
  %4 = getelementptr inbounds nuw i8, ptr %0, i64 8
  tail call void @slurm_xfree(ptr noundef nonnull %4) #19
  %5 = getelementptr inbounds nuw i8, ptr %0, i64 16
  tail call void @slurm_xfree(ptr noundef nonnull %5) #19
  %6 = getelementptr inbounds nuw i8, ptr %0, i64 40
  tail call void @slurm_xfree(ptr noundef nonnull %6) #19
  %7 = getelementptr inbounds nuw i8, ptr %0, i64 48
  tail call void @slurm_xfree(ptr noundef nonnull %7) #19
  %8 = getelementptr inbounds nuw i8, ptr %0, i64 56
  tail call void @slurm_xfree(ptr noundef nonnull %8) #19
  %9 = getelementptr inbounds nuw i8, ptr %0, i64 96
  tail call void @slurm_xfree(ptr noundef nonnull %9) #19
  call void @slurm_xfree(ptr noundef nonnull %2) #19
  br label %10

10:                                               ; preds = %3, %1
  call void @llvm.lifetime.end.p0(i64 8, ptr nonnull %2) #19
  ret void
}